target datalayout = "e-m:e-p270:32:32-p271:32:32-p272:64:64-i64:64-i128:128-f80:128-n8:16:32:64-S128"
target triple = "x86_64-pc-linux-gnu"

%struct.nghttp2_nv = type { ptr, ptr, i64, i64, i8 }

@stderr = external global ptr, align 8
@.str.13 = private unnamed_addr constant [47 x i8] c"nghttp2_hd_deflate_init failed with error: %s\0A\00", align 1
@.str.14 = private unnamed_addr constant [47 x i8] c"nghttp2_hd_inflate_init failed with error: %s\0A\00", align 1

; Function Attrs: nounwind uwtable
define dso_local i32 @main() #0 {
  %1 = alloca i32, align 4
  %2 = alloca i32, align 4
  %3 = alloca ptr, align 8
  %4 = alloca ptr, align 8
  %5 = alloca [5 x %struct.nghttp2_nv], align 16
  %6 = alloca [6 x %struct.nghttp2_nv], align 16
  store i32 0, ptr %1, align 4
  call void @llvm.lifetime.start.p0(i64 4, ptr %2) #7
  call void @llvm.lifetime.start.p0(i64 8, ptr %3) #7
  call void @llvm.lifetime.start.p0(i64 8, ptr %4) #7
  call void @llvm.lifetime.start.p0(i64 200, ptr %5) #7
  call void @llvm.memcpy.p0.p0.i64(ptr align 16 %5, ptr align 16 @__const.main.nva1, i64 200, i1 false)
  call void @llvm.lifetime.start.p0(i64 240, ptr %6) #7
  call void @llvm.memcpy.p0.p0.i64(ptr align 16 %6, ptr align 16 @__const.main.nva2, i64 240, i1 false)
  %7 = call i32 @nghttp2_hd_deflate_new(ptr noundef %3, i64 noundef 4096)
  store i32 %7, ptr %2, align 4, !tbaa !4
  %8 = load i32, ptr %2, align 4, !tbaa !4
  %9 = icmp ne i32 %8, 0
  br i1 %9, label %10, label %15

10:                                               ; preds = %0
  %11 = load ptr, ptr @stderr, align 8, !tbaa !8
  %12 = load i32, ptr %2, align 4, !tbaa !4
  %13 = call ptr @nghttp2_strerror(i32 noundef %12)
  %14 = call i32 (ptr, ptr, ...) @fprintf(ptr noundef %11, ptr noundef @.str.13, ptr noundef %13) #7
  call void @exit(i32 noundef 1) #8
  unreachable

15:                                               ; preds = %0
  %16 = call i32 @nghttp2_hd_inflate_new(ptr noundef %4)
  store i32 %16, ptr %2, align 4, !tbaa !4
  %17 = load i32, ptr %2, align 4, !tbaa !4
  %18 = icmp ne i32 %17, 0
  br i1 %18, label %19, label %24

19:                                               ; preds = %15
  %20 = load ptr, ptr @stderr, align 8, !tbaa !8
  %21 = load i32, ptr %2, align 4, !tbaa !4
  %22 = call ptr @nghttp2_strerror(i32 noundef %21)
  %23 = call i32 (ptr, ptr, ...) @fprintf(ptr noundef %20, ptr noundef @.str.14, ptr noundef %22) #7
  call void @exit(i32 noundef 1) #8
  unreachable

24:                                               ; preds = %15
  %25 = load ptr, ptr %3, align 8, !tbaa !11
  %26 = load ptr, ptr %4, align 8, !tbaa !13
  %27 = getelementptr inbounds [5 x %struct.nghttp2_nv], ptr %5, i64 0, i64 0
  call void @deflate(ptr noundef %25, ptr noundef %26, ptr noundef %27, i64 noundef 5)
  %28 = load ptr, ptr %3, align 8, !tbaa !11
  %29 = load ptr, ptr %4, align 8, !tbaa !13
  %30 = getelementptr inbounds [6 x %struct.nghttp2_nv], ptr %6, i64 0, i64 0
  call void @deflate(ptr noundef %28, ptr noundef %29, ptr noundef %30, i64 noundef 6)
  %31 = load ptr, ptr %4, align 8, !tbaa !13
  call void @nghttp2_hd_inflate_del(ptr noundef %31)
  %32 = load ptr, ptr %3, align 8, !tbaa !11
  call void @nghttp2_hd_deflate_del(ptr noundef %32)
  call void @llvm.lifetime.end.p0(i64 240, ptr %6) #7
  call void @llvm.lifetime.end.p0(i64 200, ptr %5) #7
  call void @llvm.lifetime.end.p0(i64 8, ptr %4) #7
  call void @llvm.lifetime.end.p0(i64 8, ptr %3) #7
  call void @llvm.lifetime.end.p0(i64 4, ptr %2) #7
  ret i32 0
}