; Function Attrs: nounwind uwtable
define dso_local noundef i32 @main() local_unnamed_addr #0 {
  %1 = alloca ptr, align 8
  %2 = alloca ptr, align 8
  %3 = alloca [5 x %struct.nghttp2_nv], align 16
  %4 = alloca [6 x %struct.nghttp2_nv], align 16
  call void @llvm.lifetime.start.p0(i64 8, ptr nonnull %1) #9
  call void @llvm.lifetime.start.p0(i64 8, ptr nonnull %2) #9
  call void @llvm.lifetime.start.p0(i64 200, ptr nonnull %3) #9
  call void @llvm.memcpy.p0.p0.i64(ptr noundef nonnull align 16 dereferenceable(200) %3, ptr noundef nonnull align 16 dereferenceable(200) @__const.main.nva1, i64 200, i1 false)
  call void @llvm.lifetime.start.p0(i64 240, ptr nonnull %4) #9
  call void @llvm.memcpy.p0.p0.i64(ptr noundef nonnull align 16 dereferenceable(240) %4, ptr noundef nonnull align 16 dereferenceable(240) @__const.main.nva2, i64 240, i1 false)
  %5 = call i32 @nghttp2_hd_deflate_new(ptr noundef nonnull %1, i64 noundef 4096) #9
  %.not = icmp eq i32 %5, 0
  br i1 %.not, label %10, label %6

6:                                                ; preds = %0
  %7 = load ptr, ptr @stderr, align 8, !tbaa !4
  %8 = call ptr @nghttp2_strerror(i32 noundef %5) #9
  %9 = call i32 (ptr, ptr, ...) @fprintf(ptr noundef %7, ptr noundef nonnull @.str.13, ptr noundef %8) #10
  call void @exit(i32 noundef 1) #11
  unreachable

10:                                               ; preds = %0
  %11 = call i32 @nghttp2_hd_inflate_new(ptr noundef nonnull %2) #9
  %.not5 = icmp eq i32 %11, 0
  br i1 %.not5, label %16, label %12

12:                                               ; preds = %10
  %13 = load ptr, ptr @stderr, align 8, !tbaa !4
  %14 = call ptr @nghttp2_strerror(i32 noundef %11) #9
  %15 = call i32 (ptr, ptr, ...) @fprintf(ptr noundef %13, ptr noundef nonnull @.str.14, ptr noundef %14) #10
  call void @exit(i32 noundef 1) #11
  unreachable

16:                                               ; preds = %10
  %17 = load ptr, ptr %1, align 8, !tbaa !9
  %18 = load ptr, ptr %2, align 8, !tbaa !11
  call fastcc void @deflate(ptr noundef %17, ptr noundef %18, ptr noundef %3, i64 noundef 5)
  %19 = load ptr, ptr %1, align 8, !tbaa !9
  %20 = load ptr, ptr %2, align 8, !tbaa !11
  call fastcc void @deflate(ptr noundef %19, ptr noundef %20, ptr noundef %4, i64 noundef 6)
  %21 = load ptr, ptr %2, align 8, !tbaa !11
  call void @nghttp2_hd_inflate_del(ptr noundef %21) #9
  %22 = load ptr, ptr %1, align 8, !tbaa !9
  call void @nghttp2_hd_deflate_del(ptr noundef %22) #9
  call void @llvm.lifetime.end.p0(i64 240, ptr nonnull %4) #9
  call void @llvm.lifetime.end.p0(i64 200, ptr nonnull %3) #9
  call void @llvm.lifetime.end.p0(i64 8, ptr nonnull %2) #9
  call void @llvm.lifetime.end.p0(i64 8, ptr nonnull %1) #9
  ret i32 0
}